target datalayout = "e-m:e-p270:32:32-p271:32:32-p272:64:64-i64:64-i128:128-f80:128-n8:16:32:64-S128"
target triple = "x86_64-pc-linux-gnu"

%struct._dcerpc_info = type { ptr, i32, i64, i8, i8, i8, i32, i32, i32, i32, i32, i32, i32, i32, ptr, ptr, ptr, ptr, %struct.anon }
%struct.anon = type { i8, ptr, ptr, ptr, i8 }

@hf_netlogon_logon_count16 = internal global i32 0, align 4
@hf_netlogon_logon_duration = internal global i32 0, align 4
@.str.1141 = private unnamed_addr constant [20 x i8] c"unknown time format\00", align 1

; Function Attrs: null_pointer_is_valid sspstrong uwtable
define internal i32 @netlogon_dissect_LOGOFF_UAS_INFO(ptr noundef %0, i32 noundef %1, ptr noundef %2, ptr noundef %3, ptr noundef %4, ptr noundef %5) #0 {
  %7 = alloca i32, align 4
  %8 = alloca ptr, align 8
  %9 = alloca i32, align 4
  %10 = alloca ptr, align 8
  %11 = alloca ptr, align 8
  %12 = alloca ptr, align 8
  %13 = alloca ptr, align 8
  %14 = alloca i32, align 4
  %15 = alloca i32, align 4
  store ptr %0, ptr %8, align 8
  store i32 %1, ptr %9, align 4
  store ptr %2, ptr %10, align 8
  store ptr %3, ptr %11, align 8
  store ptr %4, ptr %12, align 8
  store ptr %5, ptr %13, align 8
  call void @llvm.lifetime.start.p0(i64 4, ptr %14) #15
  %16 = load ptr, ptr %12, align 8
  %17 = getelementptr inbounds nuw %struct._dcerpc_info, ptr %16, i32 0, i32 4
  %18 = load i8, ptr %17, align 1, !range !6, !noundef !7
  %19 = trunc i8 %18 to i1
  br i1 %19, label %20, label %22

20:                                               ; preds = %6
  %21 = load i32, ptr %9, align 4
  store i32 %21, ptr %7, align 4
  store i32 1, ptr %15, align 4
  br label %50

22:                                               ; preds = %6
  %23 = load ptr, ptr %8, align 8
  %24 = load i32, ptr %9, align 4
  %25 = load ptr, ptr %13, align 8
  %26 = getelementptr i8, ptr %25, i64 0
  %27 = load i8, ptr %26, align 1
  %28 = zext i8 %27 to i32
  %29 = and i32 %28, 16
  %30 = icmp ne i32 %29, 0
  %31 = select i1 %30, i32 -2147483648, i32 0
  %32 = call i32 @tvb_get_uint32(ptr noundef %23, i32 noundef %24, i32 noundef %31)
  store i32 %32, ptr %14, align 4
  %33 = load ptr, ptr %11, align 8
  %34 = load i32, ptr @hf_netlogon_logon_duration, align 4
  %35 = load ptr, ptr %8, align 8
  %36 = load i32, ptr %9, align 4
  %37 = load i32, ptr %14, align 4
  %38 = call ptr (ptr, i32, ptr, i32, i32, i32, ptr, ...) @proto_tree_add_uint_format_value(ptr noundef %33, i32 noundef %34, ptr noundef %35, i32 noundef %36, i32 noundef 4, i32 noundef %37, ptr noundef @.str.1141)
  %39 = load i32, ptr %9, align 4
  %40 = add i32 %39, 4
  store i32 %40, ptr %9, align 4
  %41 = load ptr, ptr %8, align 8
  %42 = load i32, ptr %9, align 4
  %43 = load ptr, ptr %10, align 8
  %44 = load ptr, ptr %11, align 8
  %45 = load ptr, ptr %12, align 8
  %46 = load ptr, ptr %13, align 8
  %47 = load i32, ptr @hf_netlogon_logon_count16, align 4
  %48 = call i32 @dissect_ndr_uint16(ptr noundef %41, i32 noundef %42, ptr noundef %43, ptr noundef %44, ptr noundef %45, ptr noundef %46, i32 noundef %47, ptr noundef null)
  store i32 %48, ptr %9, align 4
  %49 = load i32, ptr %9, align 4
  store i32 %49, ptr %7, align 4
  store i32 1, ptr %15, align 4
  br label %50

50:                                               ; preds = %22, %20
  call void @llvm.lifetime.end.p0(i64 4, ptr %14) #15
  %51 = load i32, ptr %7, align 4
  ret i32 %51
}