; Function Attrs: null_pointer_is_valid sspstrong uwtable
define internal i32 @netlogon_dissect_LOGOFF_UAS_INFO(ptr noundef %0, i32 noundef %1, ptr noundef %2, ptr noundef %3, ptr noundef %4, ptr noundef %5) #0 {
  %7 = getelementptr inbounds nuw i8, ptr %4, i64 25
  %8 = load i8, ptr %7, align 1, !range !6, !noundef !7
  %9 = trunc nuw i8 %8 to i1
  br i1 %9, label %21, label %10

10:                                               ; preds = %6
  %11 = load i8, ptr %5, align 1
  %12 = and i8 %11, 16
  %13 = zext nneg i8 %12 to i32
  %14 = shl nuw i32 %13, 27
  %15 = tail call i32 @tvb_get_uint32(ptr noundef %0, i32 noundef %1, i32 noundef %14)
  %16 = load i32, ptr @hf_netlogon_logon_duration, align 4
  %17 = tail call ptr (ptr, i32, ptr, i32, i32, i32, ptr, ...) @proto_tree_add_uint_format_value(ptr noundef %3, i32 noundef %16, ptr noundef %0, i32 noundef %1, i32 noundef 4, i32 noundef %15, ptr noundef nonnull @.str.1141)
  %18 = add i32 %1, 4
  %19 = load i32, ptr @hf_netlogon_logon_count16, align 4
  %20 = tail call i32 @dissect_ndr_uint16(ptr noundef %0, i32 noundef %18, ptr noundef %2, ptr noundef %3, ptr noundef %4, ptr noundef %5, i32 noundef %19, ptr noundef null)
  br label %21

21:                                               ; preds = %6, %10
  %.0 = phi i32 [ %20, %10 ], [ %1, %6 ]
  ret i32 %.0
}